target datalayout = "e-m:e-p270:32:32-p271:32:32-p272:64:64-i64:64-i128:128-f80:128-n8:16:32:64-S128"
target triple = "x86_64-pc-linux-gnu"

@libctx = internal global ptr null, align 8
@.str.14 = private unnamed_addr constant [30 x i8] c"../openssl/test/quicapitest.c\00", align 1
@cert = internal global ptr null, align 8
@privkey = internal global ptr null, align 8
@.str.381 = private unnamed_addr constant [66 x i8] c"ssl_ctx = SSL_CTX_new_ex(libctx, NULL, OSSL_QUIC_server_method())\00", align 1
@.str.382 = private unnamed_addr constant [62 x i8] c"SSL_CTX_use_certificate_file(ssl_ctx, cert, SSL_FILETYPE_PEM)\00", align 1
@.str.383 = private unnamed_addr constant [64 x i8] c"SSL_CTX_use_PrivateKey_file(ssl_ctx, privkey, SSL_FILETYPE_PEM)\00", align 1

; Function Attrs: nounwind uwtable
define internal ptr @create_server_ctx() #0 {
  %1 = alloca ptr, align 8
  call void @llvm.lifetime.start.p0(i64 8, ptr %1) #8
  %2 = load ptr, ptr @libctx, align 8, !tbaa !4
  %3 = call ptr @OSSL_QUIC_server_method()
  %4 = call ptr @SSL_CTX_new_ex(ptr noundef %2, ptr noundef null, ptr noundef %3)
  store ptr %4, ptr %1, align 8, !tbaa !15
  %5 = call i32 @test_ptr(ptr noundef @.str.14, i32 noundef 2499, ptr noundef @.str.381, ptr noundef %4)
  %6 = icmp ne i32 %5, 0
  br i1 %6, label %7, label %23

7:                                                ; preds = %0
  %8 = load ptr, ptr %1, align 8, !tbaa !15
  %9 = load ptr, ptr @cert, align 8, !tbaa !11
  %10 = call i32 @SSL_CTX_use_certificate_file(ptr noundef %8, ptr noundef %9, i32 noundef 1)
  %11 = icmp ne i32 %10, 0
  %12 = zext i1 %11 to i32
  %13 = call i32 @test_true(ptr noundef @.str.14, i32 noundef 2500, ptr noundef @.str.382, i32 noundef %12)
  %14 = icmp ne i32 %13, 0
  br i1 %14, label %15, label %23

15:                                               ; preds = %7
  %16 = load ptr, ptr %1, align 8, !tbaa !15
  %17 = load ptr, ptr @privkey, align 8, !tbaa !11
  %18 = call i32 @SSL_CTX_use_PrivateKey_file(ptr noundef %16, ptr noundef %17, i32 noundef 1)
  %19 = icmp ne i32 %18, 0
  %20 = zext i1 %19 to i32
  %21 = call i32 @test_true(ptr noundef @.str.14, i32 noundef 2501, ptr noundef @.str.383, i32 noundef %20)
  %22 = icmp ne i32 %21, 0
  br i1 %22, label %25, label %23

23:                                               ; preds = %15, %7, %0
  %24 = load ptr, ptr %1, align 8, !tbaa !15
  call void @SSL_CTX_free(ptr noundef %24)
  store ptr null, ptr %1, align 8, !tbaa !15
  br label %28

25:                                               ; preds = %15
  %26 = load ptr, ptr %1, align 8, !tbaa !15
  call void @SSL_CTX_set_alpn_select_cb(ptr noundef %26, ptr noundef @select_alpn, ptr noundef null)
  %27 = load ptr, ptr %1, align 8, !tbaa !15
  call void @SSL_CTX_set_verify(ptr noundef %27, i32 noundef 0, ptr noundef null)
  br label %28

28:                                               ; preds = %25, %23
  %29 = load ptr, ptr %1, align 8, !tbaa !15
  call void @llvm.lifetime.end.p0(i64 8, ptr %1) #8
  ret ptr %29
}