; Function Attrs: nounwind uwtable
define internal fastcc noundef ptr @create_server_ctx() unnamed_addr #1 {
  %1 = load ptr, ptr @libctx, align 8, !tbaa !4
  %2 = tail call ptr @OSSL_QUIC_server_method() #10
  %3 = tail call ptr @SSL_CTX_new_ex(ptr noundef %1, ptr noundef null, ptr noundef %2) #10
  %4 = tail call i32 @test_ptr(ptr noundef nonnull @.str.14, i32 noundef 2499, ptr noundef nonnull @.str.381, ptr noundef %3) #10
  %.not = icmp eq i32 %4, 0
  br i1 %.not, label %17, label %5

5:                                                ; preds = %0
  %6 = load ptr, ptr @cert, align 8, !tbaa !11
  %7 = tail call i32 @SSL_CTX_use_certificate_file(ptr noundef %3, ptr noundef %6, i32 noundef 1) #10
  %8 = icmp ne i32 %7, 0
  %9 = zext i1 %8 to i32
  %10 = tail call i32 @test_true(ptr noundef nonnull @.str.14, i32 noundef 2500, ptr noundef nonnull @.str.382, i32 noundef %9) #10
  %.not6 = icmp eq i32 %10, 0
  br i1 %.not6, label %17, label %11

11:                                               ; preds = %5
  %12 = load ptr, ptr @privkey, align 8, !tbaa !11
  %13 = tail call i32 @SSL_CTX_use_PrivateKey_file(ptr noundef %3, ptr noundef %12, i32 noundef 1) #10
  %14 = icmp ne i32 %13, 0
  %15 = zext i1 %14 to i32
  %16 = tail call i32 @test_true(ptr noundef nonnull @.str.14, i32 noundef 2501, ptr noundef nonnull @.str.383, i32 noundef %15) #10
  %.not7 = icmp eq i32 %16, 0
  br i1 %.not7, label %17, label %18

17:                                               ; preds = %11, %5, %0
  tail call void @SSL_CTX_free(ptr noundef %3) #10
  br label %19

18:                                               ; preds = %11
  tail call void @SSL_CTX_set_alpn_select_cb(ptr noundef %3, ptr noundef nonnull @select_alpn, ptr noundef null) #10
  tail call void @SSL_CTX_set_verify(ptr noundef %3, i32 noundef 0, ptr noundef null) #10
  br label %19

19:                                               ; preds = %18, %17
  %.0 = phi ptr [ %3, %18 ], [ null, %17 ]
  ret ptr %.0
}